Certificate:
    Data:
        Version: 3 (0x2)
        Serial Number: 1 (0x1)
        Signature Algorithm: sha256WithRSAEncryption
        Issuer: C=AU, ST=Some-State, O=Internet Widgits Pty Ltd, CN=CA-oreore-CA
        Validity
            Not Before: Feb 20 09:30:07 2019 GMT
            Not After : Feb 17 09:30:07 2029 GMT
        Subject: C=AU, ST=Some-State, O=Internet Widgits Pty Ltd, CN=*
        Subject Public Key Info:
            Public Key Algorithm: rsaEncryption
                RSA Public-Key: (2048 bit)
                Modulus:
                    00:ab:88:ce:28:df:0d:40:72:e7:c3:aa:2c:54:d4:
                    55:b1:0c:66:a9:05:f2:61:d0:75:cd:9d:f5:e2:b9:
                    a2:91:cb:14:eb:9a:3a:66:fa:8f:2f:ac:a6:7a:66:
                    f9:15:6f:b1:0e:f4:0d:96:b5:60:42:a1:46:49:60:
                    07:c2:e8:42:d5:16:e5:8c:85:85:65:d2:86:a1:e6:
                    ee:e6:55:76:ea:51:46:ef:89:e0:8f:c0:9b:11:ae:
                    d0:5e:06:51:fe:0e:ec:8e:20:b2:99:7f:db:c2:91:
                    2e:88:2f:0b:56:e2:97:90:9b:e8:cd:d5:2f:41:e7:
                    f5:ab:22:cb:74:c8:1f:8c:4c:ba:a9:eb:59:9e:34:
                    fe:df:04:ba:76:67:fc:d8:9c:64:a4:3f:65:75:7e:
                    ca:46:57:37:41:5b:18:69:f9:84:0e:67:8f:7a:38:
                    92:f0:0b:ce:26:8e:ec:fe:6e:04:5d:35:dc:19:98:
                    59:b9:a6:90:7e:a7:df:a4:5f:4c:5a:2d:49:de:40:
                    8b:f3:f7:77:54:df:41:b2:b9:70:ee:bf:31:c0:8b:
                    2b:f9:34:57:c8:64:3b:d8:87:97:bd:79:5d:63:23:
                    ef:64:01:57:31:36:83:a3:ff:6f:4a:eb:a2:f4:05:
                    3a:f6:c3:31:32:87:fe:40:53:eb:50:09:36:a2:f6:
                    fd:4f
                Exponent: 65537 (0x10001)
        X509v3 extensions:
            X509v3 Basic Constraints: 
                CA:FALSE
            Netscape Comment: 
                OpenSSL Generated Certificate
            X509v3 Subject Key Identifier: 
                4E:E6:80:80:C3:5A:EE:9A:CD:F5:76:87:25:85:25:E1:FD:48:5C:EC
            X509v3 Authority Key Identifier: 
                DirName:/C=AU/ST=Some-State/O=Internet Widgits Pty Ltd/CN=CA-oreore-CA
                serial:7D:2C:71:2D:8B:B4:C8:C2:1E:0A:66:20:28:6C:79:9C:C2:C5:78:F9

    Signature Algorithm: sha256WithRSAEncryption
         b6:20:71:7d:a4:c0:3d:29:bc:af:15:6b:76:70:d1:ba:27:66:
         5e:e3:5d:1d:ab:20:54:52:44:a4:6f:26:01:a3:f5:76:72:08:
         0c:12:3c:74:5c:ba:21:9d:55:c2:64:e8:56:7a:cc:28:68:8e:
         2a:3f:e0:38:3e:48:d0:ea:15:c6:ca:cb:0a:75:22:4f:fc:ff:
         36:af:f0:41:85:f1:3e:75:97:66:d3:89:20:74:8a:60:56:fb:
         d1:eb:f3:8d:f5:85:8f:37:dc:8b:54:dc:2f:20:b8:e7:03:af:
         9a:c1:f7:5b:3e:f7:cf:83:87:23:0c:63:e2:9f:f0:41:ba:0b:
         fd:33:81:13:d2:17:69:61:02:02:c0:67:40:b8:f8:5b:8f:41:
         ac:46:fe:5e:78:66:fa:90:d5:84:79:fc:30:be:7a:24:c1:f7:
         88:89:a7:c1:9f:40:f4:a9:5b:8e:a4:e3:71:de:7e:aa:7c:53:
         5c:7d:86:df:54:90:1c:0a:57:9e:43:26:96:7d:3d:90:68:43:
         a3:47:30:30:4c:4f:20:bf:52:a2:30:8b:fd:b0:bf:f1:a9:ee:
         7f:5c:45:ea:2e:7b:df:37:d5:03:27:06:7b:0e:79:ab:2f:6f:
         38:b4:2d:4d:08:ae:6f:f8:20:06:eb:f6:8b:ae:39:65:7f:b1:
         d0:6d:f0:4b
-----BEGIN CERTIFICATE-----
MIIECDCCAvCgAwIBAgIBATANBgkqhkiG9w0BAQsFADBcMQswCQYDVQQGEwJBVTET
MBEGA1UECAwKU29tZS1TdGF0ZTEhMB8GA1UECgwYSW50ZXJuZXQgV2lkZ2l0cyBQ
dHkgTHRkMRUwEwYDVQQDDAxDQS1vcmVvcmUtQ0EwHhcNMTkwMjIwMDkzMDA3WhcN
MjkwMjE3MDkzMDA3WjBRMQswCQYDVQQGEwJBVTETMBEGA1UECAwKU29tZS1TdGF0
ZTEhMB8GA1UECgwYSW50ZXJuZXQgV2lkZ2l0cyBQdHkgTHRkMQowCAYDVQQDDAEq
MIIBIjANBgkqhkiG9w0BAQEFAAOCAQ8AMIIBCgKCAQEAq4jOKN8NQHLnw6osVNRV
sQxmqQXyYdB1zZ314rmikcsU65o6ZvqPL6ymemb5FW+xDvQNlrVgQqFGSWAHwuhC
1RbljIWFZdKGoebu5lV26lFG74ngj8CbEa7QXgZR/g7sjiCymX/bwpEuiC8LVuKX
kJvozdUvQef1qyLLdMgfjEy6qetZnjT+3wS6dmf82JxkpD9ldX7KRlc3QVsYafmE
DmePejiS8AvOJo7s/m4EXTXcGZhZuaaQfqffpF9MWi1J3kCL8/d3VN9Bsrlw7r8x
wIsr+TRXyGQ72IeXvXldYyPvZAFXMTaDo/9vSuui9AU69sMxMof+QFPrUAk2ovb9
TwIDAQABo4HfMIHcMAkGA1UdEwQCMAAwLAYJYIZIAYb4QgENBB8WHU9wZW5TU0wg
R2VuZXJhdGVkIENlcnRpZmljYXRlMB0GA1UdDgQWBBRO5oCAw1rums31doclhSXh
/Uhc7DCBgQYDVR0jBHoweKFgpF4wXDELMAkGA1UEBhMCQVUxEzARBgNVBAgMClNv
bWUtU3RhdGUxITAfBgNVBAoMGEludGVybmV0IFdpZGdpdHMgUHR5IEx0ZDEVMBMG
A1UEAwwMQ0Etb3Jlb3JlLUNBghR9LHEti7TIwh4KZiAobHmcwsV4+TANBgkqhkiG
9w0BAQsFAAOCAQEAtiBxfaTAPSm8rxVrdnDRuidmXuNdHasgVFJEpG8mAaP1dnII
DBI8dFy6IZ1VwmToVnrMKGiOKj/gOD5I0OoVxsrLCnUiT/z/Nq/wQYXxPnWXZtOJ
IHSKYFb70evzjfWFjzfci1TcLyC45wOvmsH3Wz73z4OHIwxj4p/wQboL/TOBE9IX
aWECAsBnQLj4W49BrEb+Xnhm+pDVhHn8ML56JMH3iImnwZ9A9KlbjqTjcd5+qnxT
XH2G31SQHApXnkMmln09kGhDo0cwMExPIL9SojCL/bC/8anuf1xF6i573zfVAycG
ew55qy9vOLQtTQiub/ggBuv2i645ZX+x0G3wSw==
-----END CERTIFICATE-----
