Certificate:
    Data:
        Version: 3 (0x2)
        Serial Number: 2 (0x2)
        Signature Algorithm: sha256WithRSAEncryption
        Issuer: C=AU, ST=Some-State, O=Internet Widgits Pty Ltd, CN=CA-oreore-CA
        Validity
            Not Before: Feb 20 09:36:37 2019 GMT
            Not After : Feb 17 09:36:37 2029 GMT
        Subject: C=AU, ST=Some-State, O=Internet Widgits Pty Ltd, CN=192.168.1.93:8443
        Subject Public Key Info:
            Public Key Algorithm: rsaEncryption
                RSA Public-Key: (2048 bit)
                Modulus:
                    00:d9:51:59:ac:2b:b5:ad:8d:f7:25:bf:33:8b:75:
                    41:20:c8:fb:a1:e1:be:50:27:63:4d:71:26:84:d4:
                    00:d3:85:31:38:22:b7:22:3b:07:4a:08:7b:8f:39:
                    cc:0a:b3:d5:45:c6:5c:f0:8b:89:66:ac:3f:b5:08:
                    56:7c:30:05:65:9c:ad:23:d6:a4:d9:18:4c:d2:41:
                    ac:b5:2b:d1:ba:28:5b:ed:f2:9b:a0:73:d9:1f:3d:
                    13:89:86:02:09:de:8e:71:88:3e:68:1c:0c:79:3a:
                    d2:00:94:00:f7:cc:a9:08:e3:d1:69:4a:3a:54:8b:
                    b8:f0:df:5d:c6:2e:14:57:83:73:55:15:7b:83:42:
                    43:4d:69:49:47:78:9b:f2:6f:4e:fc:2b:0e:f8:66:
                    c9:e4:d7:10:34:36:9d:e4:fb:80:12:c2:f8:0f:b2:
                    ef:14:60:44:c9:f2:f6:a6:dc:3f:49:45:6b:70:af:
                    2e:b4:93:51:9c:eb:68:e8:5b:23:48:15:76:55:99:
                    fb:dc:27:73:63:47:ca:6c:da:39:37:93:1e:1b:73:
                    c3:78:2f:ca:86:f8:b7:6f:76:a8:e4:ae:94:40:8d:
                    97:1e:95:6b:41:86:f9:ee:11:2b:e5:5d:13:f6:39:
                    c5:81:a7:de:d0:12:44:fb:65:2c:a1:02:57:2c:3b:
                    c4:27
                Exponent: 65537 (0x10001)
        X509v3 extensions:
            X509v3 Basic Constraints: 
                CA:FALSE
            Netscape Comment: 
                OpenSSL Generated Certificate
            X509v3 Subject Key Identifier: 
                2D:3D:D5:0D:D9:89:EF:8F:E7:DD:95:CE:CB:0D:4E:66:BA:C5:8D:26
            X509v3 Authority Key Identifier: 
                DirName:/C=AU/ST=Some-State/O=Internet Widgits Pty Ltd/CN=CA-oreore-CA
                serial:7D:2C:71:2D:8B:B4:C8:C2:1E:0A:66:20:28:6C:79:9C:C2:C5:78:F9

    Signature Algorithm: sha256WithRSAEncryption
         ae:ca:9f:3e:4d:2d:b6:eb:3c:a5:2f:06:9b:91:15:04:ba:65:
         52:da:34:4b:c7:ae:a1:ea:0e:dd:76:32:0e:28:22:41:e3:27:
         c9:81:b9:93:cf:40:1a:12:5a:b4:b8:00:ff:27:8a:da:6a:3f:
         a3:47:d2:7c:c9:10:05:1b:fc:79:97:16:4c:d5:6a:83:21:35:
         69:36:6d:58:53:26:ad:cd:64:2d:c8:f8:ba:bc:66:d5:32:c8:
         ff:a0:d1:75:7a:ad:ad:0d:f3:0f:7b:b6:53:55:0c:8f:8a:14:
         52:32:66:16:c1:91:7b:5b:78:30:9c:ff:fa:80:3e:5d:dc:fd:
         d0:d9:d7:6e:b9:99:d0:f0:fe:fa:bc:69:a4:56:29:4d:fb:11:
         ba:e3:9b:cf:5d:f7:df:91:5a:fd:16:b6:95:f7:ff:59:af:c7:
         49:f6:ef:65:c4:a1:50:69:ce:5c:88:2f:2a:a1:0c:8e:2f:72:
         e2:2e:df:18:9e:bf:21:2f:71:e6:a3:a3:7a:32:15:8c:47:de:
         52:5a:ea:27:4d:02:e5:92:4b:ee:25:6d:d9:f0:f1:04:46:73:
         ec:ae:98:b3:53:fa:94:9d:ce:34:91:78:bc:1f:28:e5:d1:3b:
         95:59:ca:38:37:c6:70:1b:07:ca:cd:c9:41:7d:a7:dc:e6:61:
         d8:95:b5:d7
-----BEGIN CERTIFICATE-----
MIIEGDCCAwCgAwIBAgIBAjANBgkqhkiG9w0BAQsFADBcMQswCQYDVQQGEwJBVTET
MBEGA1UECAwKU29tZS1TdGF0ZTEhMB8GA1UECgwYSW50ZXJuZXQgV2lkZ2l0cyBQ
dHkgTHRkMRUwEwYDVQQDDAxDQS1vcmVvcmUtQ0EwHhcNMTkwMjIwMDkzNjM3WhcN
MjkwMjE3MDkzNjM3WjBhMQswCQYDVQQGEwJBVTETMBEGA1UECAwKU29tZS1TdGF0
ZTEhMB8GA1UECgwYSW50ZXJuZXQgV2lkZ2l0cyBQdHkgTHRkMRowGAYDVQQDDBEx
OTIuMTY4LjEuOTM6ODQ0MzCCASIwDQYJKoZIhvcNAQEBBQADggEPADCCAQoCggEB
ANlRWawrta2N9yW/M4t1QSDI+6HhvlAnY01xJoTUANOFMTgityI7B0oIe485zAqz
1UXGXPCLiWasP7UIVnwwBWWcrSPWpNkYTNJBrLUr0booW+3ym6Bz2R89E4mGAgne
jnGIPmgcDHk60gCUAPfMqQjj0WlKOlSLuPDfXcYuFFeDc1UVe4NCQ01pSUd4m/Jv
TvwrDvhmyeTXEDQ2neT7gBLC+A+y7xRgRMny9qbcP0lFa3CvLrSTUZzraOhbI0gV
dlWZ+9wnc2NHymzaOTeTHhtzw3gvyob4t292qOSulECNlx6Va0GG+e4RK+VdE/Y5
xYGn3tASRPtlLKECVyw7xCcCAwEAAaOB3zCB3DAJBgNVHRMEAjAAMCwGCWCGSAGG
+EIBDQQfFh1PcGVuU1NMIEdlbmVyYXRlZCBDZXJ0aWZpY2F0ZTAdBgNVHQ4EFgQU
LT3VDdmJ74/n3ZXOyw1OZrrFjSYwgYEGA1UdIwR6MHihYKReMFwxCzAJBgNVBAYT
AkFVMRMwEQYDVQQIDApTb21lLVN0YXRlMSEwHwYDVQQKDBhJbnRlcm5ldCBXaWRn
aXRzIFB0eSBMdGQxFTATBgNVBAMMDENBLW9yZW9yZS1DQYIUfSxxLYu0yMIeCmYg
KGx5nMLFePkwDQYJKoZIhvcNAQELBQADggEBAK7Knz5NLbbrPKUvBpuRFQS6ZVLa
NEvHrqHqDt12Mg4oIkHjJ8mBuZPPQBoSWrS4AP8nitpqP6NH0nzJEAUb/HmXFkzV
aoMhNWk2bVhTJq3NZC3I+Lq8ZtUyyP+g0XV6ra0N8w97tlNVDI+KFFIyZhbBkXtb
eDCc//qAPl3c/dDZ1265mdDw/vq8aaRWKU37Ebrjm89d99+RWv0WtpX3/1mvx0n2
72XEoVBpzlyILyqhDI4vcuIu3xievyEvceajo3oyFYxH3lJa6idNAuWSS+4lbdnw
8QRGc+yumLNT+pSdzjSReLwfKOXRO5VZyjg3xnAbB8rNyUF9p9zmYdiVtdc=
-----END CERTIFICATE-----
