Certificate:
    Data:
        Version: 3 (0x2)
        Serial Number: 3 (0x3)
        Signature Algorithm: sha256WithRSAEncryption
        Issuer: C=AU, ST=Some-State, O=Internet Widgits Pty Ltd, CN=CA-oreore-CA
        Validity
            Not Before: Feb 20 09:53:11 2019 GMT
            Not After : Feb 17 09:53:11 2029 GMT
        Subject: C=AU, ST=Some-State, O=Internet Widgits Pty Ltd, CN=192.168.1.93
        Subject Public Key Info:
            Public Key Algorithm: rsaEncryption
                RSA Public-Key: (2048 bit)
                Modulus:
                    00:b9:de:cb:02:76:d3:f5:c4:dc:78:fe:ca:18:85:
                    02:1a:27:c3:eb:3d:c7:c6:dc:fc:f3:dc:41:0b:28:
                    56:62:3b:d8:12:af:59:f7:66:74:2d:e6:dd:05:17:
                    24:b0:55:ae:2e:d0:0c:7b:52:5a:e6:55:c7:19:e1:
                    0e:5d:11:6c:43:4f:d9:b0:b9:57:ad:83:2d:92:85:
                    14:73:43:d6:c8:dc:99:dd:ba:41:7a:4b:39:da:9f:
                    5d:a6:e8:ac:bc:0c:04:94:7b:ae:84:43:c7:dd:52:
                    5c:85:12:89:34:ac:04:45:51:d5:8c:ef:fd:42:11:
                    57:a0:ea:a1:6b:ac:72:a0:22:a4:35:a3:10:fb:f6:
                    38:08:1d:83:0b:cf:ce:7e:71:1b:ca:00:9c:5e:34:
                    71:c1:d3:aa:1c:cb:b2:6c:e1:36:15:74:4c:3d:c0:
                    bf:73:9d:a5:52:c4:62:ce:f9:4f:f0:f1:71:b5:30:
                    a2:ac:47:76:ed:2f:ed:30:ee:5f:b5:2e:13:41:a2:
                    cc:53:6b:75:8f:03:81:c9:46:b0:cc:04:09:f5:c7:
                    bb:33:f1:8f:fa:18:96:e1:4f:a1:42:62:fd:ca:d0:
                    4a:71:e7:6a:ca:bc:e7:49:df:83:64:11:b1:3e:68:
                    a2:0c:38:54:3d:1d:13:cd:c2:d5:73:51:45:d2:a7:
                    34:9f
                Exponent: 65537 (0x10001)
        X509v3 extensions:
            X509v3 Basic Constraints: 
                CA:FALSE
            Netscape Comment: 
                OpenSSL Generated Certificate
            X509v3 Subject Key Identifier: 
                F7:98:07:06:F0:C0:CC:E7:BC:05:02:F2:05:C0:33:A4:71:12:75:A1
            X509v3 Authority Key Identifier: 
                DirName:/C=AU/ST=Some-State/O=Internet Widgits Pty Ltd/CN=CA-oreore-CA
                serial:7D:2C:71:2D:8B:B4:C8:C2:1E:0A:66:20:28:6C:79:9C:C2:C5:78:F9

    Signature Algorithm: sha256WithRSAEncryption
         3b:04:58:9a:00:ea:e3:fc:1d:76:c2:07:7c:db:29:9c:e6:01:
         3e:5c:7a:cc:81:95:bc:64:38:85:78:17:7b:d7:ed:e8:fd:9e:
         26:86:95:fc:bc:22:43:c3:99:56:1c:e1:d2:69:df:9a:dd:78:
         b5:85:06:93:cd:3a:44:13:ef:44:9f:cf:31:17:05:81:a8:35:
         80:3b:43:c0:1e:d9:bd:c4:cb:42:5b:33:b8:49:b1:58:85:7e:
         b3:ea:9f:02:22:a4:f3:a0:59:d5:25:db:95:80:f8:3f:0a:53:
         ae:89:17:82:19:0e:50:90:6b:a7:36:1a:70:fd:11:74:47:0a:
         39:6b:75:b0:e0:b2:b9:15:02:fb:89:5d:98:df:c8:c5:5f:65:
         72:55:9b:e4:4c:f6:de:9a:b7:14:6a:71:d5:02:fd:7f:92:d2:
         a0:a9:ad:77:46:4a:5e:e4:14:41:35:38:b4:ea:f7:26:45:59:
         64:cd:2c:45:f6:22:bd:96:ab:91:e4:8d:1c:d5:55:95:23:0d:
         ce:0d:af:28:45:2e:ca:f8:39:20:24:70:b0:89:0e:fe:ad:9c:
         da:46:0f:67:13:a9:c1:24:b8:d3:73:7d:6e:ee:72:6a:4e:61:
         cf:64:1d:6f:b7:d6:8f:43:5a:33:31:08:3b:74:c8:29:ff:5c:
         16:c8:e1:0c
-----BEGIN CERTIFICATE-----
MIIEEzCCAvugAwIBAgIBAzANBgkqhkiG9w0BAQsFADBcMQswCQYDVQQGEwJBVTET
MBEGA1UECAwKU29tZS1TdGF0ZTEhMB8GA1UECgwYSW50ZXJuZXQgV2lkZ2l0cyBQ
dHkgTHRkMRUwEwYDVQQDDAxDQS1vcmVvcmUtQ0EwHhcNMTkwMjIwMDk1MzExWhcN
MjkwMjE3MDk1MzExWjBcMQswCQYDVQQGEwJBVTETMBEGA1UECAwKU29tZS1TdGF0
ZTEhMB8GA1UECgwYSW50ZXJuZXQgV2lkZ2l0cyBQdHkgTHRkMRUwEwYDVQQDDAwx
OTIuMTY4LjEuOTMwggEiMA0GCSqGSIb3DQEBAQUAA4IBDwAwggEKAoIBAQC53ssC
dtP1xNx4/soYhQIaJ8PrPcfG3Pzz3EELKFZiO9gSr1n3ZnQt5t0FFySwVa4u0Ax7
UlrmVccZ4Q5dEWxDT9mwuVetgy2ShRRzQ9bI3JndukF6Sznan12m6Ky8DASUe66E
Q8fdUlyFEok0rARFUdWM7/1CEVeg6qFrrHKgIqQ1oxD79jgIHYMLz85+cRvKAJxe
NHHB06ocy7Js4TYVdEw9wL9znaVSxGLO+U/w8XG1MKKsR3btL+0w7l+1LhNBosxT
a3WPA4HJRrDMBAn1x7sz8Y/6GJbhT6FCYv3K0Epx52rKvOdJ34NkEbE+aKIMOFQ9
HRPNwtVzUUXSpzSfAgMBAAGjgd8wgdwwCQYDVR0TBAIwADAsBglghkgBhvhCAQ0E
HxYdT3BlblNTTCBHZW5lcmF0ZWQgQ2VydGlmaWNhdGUwHQYDVR0OBBYEFPeYBwbw
wMznvAUC8gXAM6RxEnWhMIGBBgNVHSMEejB4oWCkXjBcMQswCQYDVQQGEwJBVTET
MBEGA1UECAwKU29tZS1TdGF0ZTEhMB8GA1UECgwYSW50ZXJuZXQgV2lkZ2l0cyBQ
dHkgTHRkMRUwEwYDVQQDDAxDQS1vcmVvcmUtQ0GCFH0scS2LtMjCHgpmIChseZzC
xXj5MA0GCSqGSIb3DQEBCwUAA4IBAQA7BFiaAOrj/B12wgd82ymc5gE+XHrMgZW8
ZDiFeBd71+3o/Z4mhpX8vCJDw5lWHOHSad+a3Xi1hQaTzTpEE+9En88xFwWBqDWA
O0PAHtm9xMtCWzO4SbFYhX6z6p8CIqTzoFnVJduVgPg/ClOuiReCGQ5QkGunNhpw
/RF0Rwo5a3Ww4LK5FQL7iV2Y38jFX2VyVZvkTPbemrcUanHVAv1/ktKgqa13Rkpe
5BRBNTi06vcmRVlkzSxF9iK9lquR5I0c1VWVIw3ODa8oRS7K+DkgJHCwiQ7+rZza
Rg9nE6nBJLjTc31u7nJqTmHPZB1vt9aPQ1ozMQg7dMgp/1wWyOEM
-----END CERTIFICATE-----
