Certificate:
    Data:
        Version: 3 (0x2)
        Serial Number: 4 (0x4)
        Signature Algorithm: sha256WithRSAEncryption
        Issuer: C=AU, ST=Some-State, O=Internet Widgits Pty Ltd, CN=CA-oreore-CA
        Validity
            Not Before: Feb 20 10:28:40 2019 GMT
            Not After : Feb 17 10:28:40 2029 GMT
        Subject: C=AU, ST=Some-State, O=test, CN=*
        Subject Public Key Info:
            Public Key Algorithm: rsaEncryption
                RSA Public-Key: (2048 bit)
                Modulus:
                    00:b4:0c:16:d1:bd:b9:17:82:fc:da:82:73:95:39:
                    e1:1f:e9:b3:43:ca:08:a1:63:20:57:e7:9e:4f:8b:
                    f0:12:75:21:c8:c5:28:0e:94:7b:98:37:a2:6e:5d:
                    f5:54:8f:46:fe:c9:15:2a:80:c7:38:f4:57:89:22:
                    9d:c0:77:59:54:7c:ac:fa:bf:31:c3:4e:b9:fa:bb:
                    33:38:23:2e:cd:74:a6:7e:aa:01:37:f2:8e:83:26:
                    02:64:77:1d:8b:c7:1c:92:d5:c0:48:34:b3:ad:bc:
                    09:4d:fe:6a:5b:4b:e3:f0:16:34:74:ee:90:06:64:
                    50:68:bc:06:f1:8c:9c:fa:c7:0e:3d:2f:f9:8a:6b:
                    c8:26:58:ad:7b:63:aa:88:5b:97:13:37:9a:f3:df:
                    e3:2a:f7:cb:41:a6:5a:5c:fc:f6:27:19:69:72:b7:
                    11:25:67:f1:89:9e:42:ee:ed:34:65:f0:2a:4b:e3:
                    db:85:c9:6d:c8:95:22:7d:0d:55:9c:20:0d:4b:42:
                    d7:f0:c6:da:6d:31:08:91:d2:86:25:39:d3:8c:43:
                    2c:37:46:fc:08:e5:3b:94:c9:7a:76:16:5f:f4:a4:
                    94:c8:c2:aa:85:8a:19:de:9a:35:e7:00:ae:3b:71:
                    ff:7a:30:f1:d1:19:78:6d:9d:f2:a9:29:2f:37:92:
                    bb:65
                Exponent: 65537 (0x10001)
        X509v3 extensions:
            X509v3 Basic Constraints: 
                CA:FALSE
            Netscape Comment: 
                OpenSSL Generated Certificate
            X509v3 Subject Key Identifier: 
                89:8D:29:2A:49:E4:ED:AA:E8:83:8D:0A:05:D8:63:72:3C:31:C4:37
            X509v3 Authority Key Identifier: 
                DirName:/C=AU/ST=Some-State/O=Internet Widgits Pty Ltd/CN=CA-oreore-CA
                serial:7D:2C:71:2D:8B:B4:C8:C2:1E:0A:66:20:28:6C:79:9C:C2:C5:78:F9

    Signature Algorithm: sha256WithRSAEncryption
         29:6e:c3:5c:d5:9d:5d:0f:ee:27:15:7f:06:80:0d:e0:73:d7:
         96:99:af:63:00:cc:68:8e:ef:e1:e4:df:5c:7a:53:2a:1b:f3:
         8e:7c:7a:75:50:0a:ef:d3:de:cc:2a:7c:3e:1d:0d:03:dc:93:
         3e:60:c2:44:fb:7b:35:50:22:fd:c1:71:e3:9d:a4:bd:22:af:
         b0:3b:06:03:09:90:55:b6:c7:a7:28:6e:7a:e2:5a:b5:b7:e7:
         9b:00:3d:b8:fe:71:a9:76:d0:ac:26:c1:87:58:14:91:5e:05:
         80:2a:d8:a0:00:2b:34:22:f2:f5:0e:63:6a:35:e4:11:73:6f:
         34:8a:5e:a3:76:d0:bb:5f:6c:ab:81:c0:84:d5:e6:5c:d8:b8:
         15:e6:39:a9:3c:4d:38:31:e5:ed:24:86:b6:0f:9d:c5:e2:b9:
         b3:fa:72:f9:e3:70:92:cf:c6:e9:31:f2:7d:56:2b:ac:e8:50:
         8e:d0:db:d6:b2:4e:a8:2f:4c:ef:f9:5c:5f:bc:e8:dd:cb:48:
         85:f3:d5:cf:c2:5d:f7:08:4e:04:fb:46:73:5c:85:ef:34:3d:
         95:d4:01:91:66:02:7b:b2:2e:a3:44:6b:ed:ae:c5:46:d5:01:
         7b:95:76:13:26:b0:3d:54:36:1f:31:a8:46:fc:d9:c3:9d:86:
         86:2d:b8:80
-----BEGIN CERTIFICATE-----
MIID9DCCAtygAwIBAgIBBDANBgkqhkiG9w0BAQsFADBcMQswCQYDVQQGEwJBVTET
MBEGA1UECAwKU29tZS1TdGF0ZTEhMB8GA1UECgwYSW50ZXJuZXQgV2lkZ2l0cyBQ
dHkgTHRkMRUwEwYDVQQDDAxDQS1vcmVvcmUtQ0EwHhcNMTkwMjIwMTAyODQwWhcN
MjkwMjE3MTAyODQwWjA9MQswCQYDVQQGEwJBVTETMBEGA1UECAwKU29tZS1TdGF0
ZTENMAsGA1UECgwEdGVzdDEKMAgGA1UEAwwBKjCCASIwDQYJKoZIhvcNAQEBBQAD
ggEPADCCAQoCggEBALQMFtG9uReC/NqCc5U54R/ps0PKCKFjIFfnnk+L8BJ1IcjF
KA6Ue5g3om5d9VSPRv7JFSqAxzj0V4kincB3WVR8rPq/McNOufq7MzgjLs10pn6q
ATfyjoMmAmR3HYvHHJLVwEg0s628CU3+altL4/AWNHTukAZkUGi8BvGMnPrHDj0v
+YpryCZYrXtjqohblxM3mvPf4yr3y0GmWlz89icZaXK3ESVn8YmeQu7tNGXwKkvj
24XJbciVIn0NVZwgDUtC1/DG2m0xCJHShiU504xDLDdG/AjlO5TJenYWX/SklMjC
qoWKGd6aNecArjtx/3ow8dEZeG2d8qkpLzeSu2UCAwEAAaOB3zCB3DAJBgNVHRME
AjAAMCwGCWCGSAGG+EIBDQQfFh1PcGVuU1NMIEdlbmVyYXRlZCBDZXJ0aWZpY2F0
ZTAdBgNVHQ4EFgQUiY0pKknk7arog40KBdhjcjwxxDcwgYEGA1UdIwR6MHihYKRe
MFwxCzAJBgNVBAYTAkFVMRMwEQYDVQQIDApTb21lLVN0YXRlMSEwHwYDVQQKDBhJ
bnRlcm5ldCBXaWRnaXRzIFB0eSBMdGQxFTATBgNVBAMMDENBLW9yZW9yZS1DQYIU
fSxxLYu0yMIeCmYgKGx5nMLFePkwDQYJKoZIhvcNAQELBQADggEBACluw1zVnV0P
7icVfwaADeBz15aZr2MAzGiO7+Hk31x6Uyob8458enVQCu/T3swqfD4dDQPckz5g
wkT7ezVQIv3BceOdpL0ir7A7BgMJkFW2x6cobnriWrW355sAPbj+cal20KwmwYdY
FJFeBYAq2KAAKzQi8vUOY2o15BFzbzSKXqN20LtfbKuBwITV5lzYuBXmOak8TTgx
5e0khrYPncXiubP6cvnjcJLPxukx8n1WK6zoUI7Q29ayTqgvTO/5XF+86N3LSIXz
1c/CXfcITgT7RnNche80PZXUAZFmAnuyLqNEa+2uxUbVAXuVdhMmsD1UNh8xqEb8
2cOdhoYtuIA=
-----END CERTIFICATE-----
